(lp0
cnumpy.core.multiarray
_reconstruct
p1
(cnumpy
ndarray
p2
(I0
tp3
S'b'
p4
tp5
Rp6
(I1
(tcnumpy
dtype
p7
(S'f8'
p8
I0
I1
tp9
Rp10
(I3
S'<'
p11
NNNI-1
I-1
I0
tp12
bI00
S'\xa8t\xda\nR\x1c\xb2@'
p13
tp14
bag1
(g2
(I0
tp15
g4
tp16
Rp17
(I1
(tg10
I00
S'\x03U\xb2\xb5]%\xb2@'
p18
tp19
bag1
(g2
(I0
tp20
g4
tp21
Rp22
(I1
(tg10
I00
S'n\xd7*\x15\xca@\xb2@'
p23
tp24
bag1
(g2
(I0
tp25
g4
tp26
Rp27
(I1
(tg10
I00
S'+\xed\xa9\xd9P\x13\xb2@'
p28
tp29
bag1
(g2
(I0
tp30
g4
tp31
Rp32
(I1
(tg10
I00
S'\xad~>\xb0\x8d#\xb2@'
p33
tp34
bag1
(g2
(I0
tp35
g4
tp36
Rp37
(I1
(tg10
I00
S'\xbb\xe1\xfe\xcb\xe7)\xb2@'
p38
tp39
bag1
(g2
(I0
tp40
g4
tp41
Rp42
(I1
(tg10
I00
S'd\x80\xff,\xef3\xb2@'
p43
tp44
bag1
(g2
(I0
tp45
g4
tp46
Rp47
(I1
(tg10
I00
S'\xab\xb4nC\nJ\xb2@'
p48
tp49
bag1
(g2
(I0
tp50
g4
tp51
Rp52
(I1
(tg10
I00
S'>t\x92\x1e\xbe!\xb2@'
p53
tp54
bag1
(g2
(I0
tp55
g4
tp56
Rp57
(I1
(tg10
I00
S's\xea\x831BG\xb2@'
p58
tp59
bag1
(g2
(I0
tp60
g4
tp61
Rp62
(I1
(tg10
I00
S'\xdc\xed\xa2\x19\x1d\x15\xb2@'
p63
tp64
bag1
(g2
(I0
tp65
g4
tp66
Rp67
(I1
(tg10
I00
S'\xd3\x1f\xce\xd5L\x02\xb2@'
p68
tp69
bag1
(g2
(I0
tp70
g4
tp71
Rp72
(I1
(tg10
I00
S'\x03U\xb2\xb5]%\xb2@'
p73
tp74
bag1
(g2
(I0
tp75
g4
tp76
Rp77
(I1
(tg10
I00
S'~\xaa\x8c$\xff(\xb2@'
p78
tp79
bag1
(g2
(I0
tp80
g4
tp81
Rp82
(I1
(tg10
I00
S'.\x9a\x8a\xfe\xee\x1f\xb2@'
p83
tp84
bag1
(g2
(I0
tp85
g4
tp86
Rp87
(I1
(tg10
I00
S'\x96)\x83\xe4E&\xb2@'
p88
tp89
bag1
(g2
(I0
tp90
g4
tp91
Rp92
(I1
(tg10
I00
S'n\xd7*\x15\xca@\xb2@'
p93
tp94
bag1
(g2
(I0
tp95
g4
tp96
Rp97
(I1
(tg10
I00
S'\xa1/\xa0\x11k\x1b\xb2@'
p98
tp99
bag1
(g2
(I0
tp100
g4
tp101
Rp102
(I1
(tg10
I00
S'\xdfX\xd7\xa0\x8b-\xb2@'
p103
tp104
bag1
(g2
(I0
tp105
g4
tp106
Rp107
(I1
(tg10
I00
S'\xd3\x1f\xce\xd5L\x02\xb2@'
p108
tp109
bag1
(g2
(I0
tp110
g4
tp111
Rp112
(I1
(tg10
I00
S'\x92\xc2N\xecX\n\xb2@'
p113
tp114
bag1
(g2
(I0
tp115
g4
tp116
Rp117
(I1
(tg10
I00
S'\x02\xed\x14\xdej\x12\xb2@'
p118
tp119
bag1
(g2
(I0
tp120
g4
tp121
Rp122
(I1
(tg10
I00
S'\xa1/\xa0\x11k\x1b\xb2@'
p123
tp124
bag1
(g2
(I0
tp125
g4
tp126
Rp127
(I1
(tg10
I00
S'>Y\x02N \x1e\xb2@'
p128
tp129
ba.